; Function Attrs: mustprogress nofree norecurse nosync nounwind willreturn memory(readwrite, inaccessiblemem: none) uwtable
define hidden void @_ZN5zxing18ReedSolomonDecoderC2ENS_3RefINS_9GenericGFEEE(ptr noundef nonnull writeonly align 8 captures(none) dereferenceable(8) initializes((0, 8)) %0, ptr noundef readonly captures(none) %1) unnamed_addr #3 align 2 {
  store ptr null, ptr %0, align 8, !tbaa !14
  %3 = load ptr, ptr %1, align 8, !tbaa !14
  %.not.i.i = icmp eq ptr %3, null
  br i1 %.not.i.i, label %_ZN5zxing3RefINS_9GenericGFEEC2ERKS2_.exit, label %4

4:                                                ; preds = %2
  %5 = getelementptr inbounds nuw i8, ptr %3, i64 8
  %6 = load i32, ptr %5, align 8, !tbaa !17
  %7 = add i32 %6, 1
  store i32 %7, ptr %5, align 8, !tbaa !17
  br label %_ZN5zxing3RefINS_9GenericGFEEC2ERKS2_.exit

_ZN5zxing3RefINS_9GenericGFEEC2ERKS2_.exit:       ; preds = %2, %4
  store ptr %3, ptr %0, align 8, !tbaa !14
  ret void
}